target datalayout = "e-m:e-p270:32:32-p271:32:32-p272:64:64-i64:64-i128:128-f80:128-n8:16:32:64-S128"
target triple = "x86_64-pc-linux-gnu"

%"class.pxrInternal_v0_24__pxrReserved__::GfRange3f" = type { %"class.pxrInternal_v0_24__pxrReserved__::GfVec3f", %"class.pxrInternal_v0_24__pxrReserved__::GfVec3f" }
%"class.pxrInternal_v0_24__pxrReserved__::GfVec3f" = type { [3 x float] }

; Function Attrs: mustprogress nounwind uwtable
define linkonce_odr noundef double @_ZN32pxrInternal_v0_24__pxrReserved__5GfSqrIfEEdRKT_(ptr noundef nonnull align 4 dereferenceable(4) %0) #2 comdat {
  %2 = alloca ptr, align 8
  store ptr %0, ptr %2, align 8
  %3 = load ptr, ptr %2, align 8
  %4 = load float, ptr %3, align 4
  %5 = load ptr, ptr %2, align 8
  %6 = load float, ptr %5, align 4
  %7 = fmul float %4, %6
  %8 = fpext float %7 to double
  ret double %8
}

; Function Attrs: mustprogress nounwind uwtable
define linkonce_odr noundef nonnull align 4 dereferenceable(4) ptr @_ZNK32pxrInternal_v0_24__pxrReserved__7GfVec3fixEm(ptr noundef nonnull align 4 dereferenceable(12) %0, i64 noundef %1) #2 comdat align 2 {
  %3 = alloca ptr, align 8
  %4 = alloca i64, align 8
  store ptr %0, ptr %3, align 8
  store i64 %1, ptr %4, align 8
  %5 = load ptr, ptr %3, align 8
  %6 = getelementptr inbounds nuw %"class.pxrInternal_v0_24__pxrReserved__::GfVec3f", ptr %5, i32 0, i32 0
  %7 = load i64, ptr %4, align 8
  %8 = getelementptr inbounds [3 x float], ptr %6, i64 0, i64 %7
  ret ptr %8
}

; Function Attrs: mustprogress uwtable
define noundef double @_ZNK32pxrInternal_v0_24__pxrReserved__9GfRange3f18GetDistanceSquaredERKNS_7GfVec3fE(ptr noundef nonnull align 4 dereferenceable(24) %0, ptr noundef nonnull align 4 dereferenceable(12) %1) #0 align 2 {
  %3 = alloca ptr, align 8
  %4 = alloca ptr, align 8
  %5 = alloca double, align 8
  %6 = alloca float, align 4
  %7 = alloca float, align 4
  %8 = alloca float, align 4
  %9 = alloca float, align 4
  %10 = alloca float, align 4
  %11 = alloca float, align 4
  store ptr %0, ptr %3, align 8
  store ptr %1, ptr %4, align 8
  %12 = load ptr, ptr %3, align 8
  store double 0.000000e+00, ptr %5, align 8
  %13 = load ptr, ptr %4, align 8
  %14 = call noundef nonnull align 4 dereferenceable(4) ptr @_ZNK32pxrInternal_v0_24__pxrReserved__7GfVec3fixEm(ptr noundef nonnull align 4 dereferenceable(12) %13, i64 noundef 0)
  %15 = load float, ptr %14, align 4
  %16 = getelementptr inbounds nuw %"class.pxrInternal_v0_24__pxrReserved__::GfRange3f", ptr %12, i32 0, i32 0
  %17 = call noundef nonnull align 4 dereferenceable(4) ptr @_ZNK32pxrInternal_v0_24__pxrReserved__7GfVec3fixEm(ptr noundef nonnull align 4 dereferenceable(12) %16, i64 noundef 0)
  %18 = load float, ptr %17, align 4
  %19 = fcmp olt float %15, %18
  br i1 %19, label %20, label %31

20:                                               ; preds = %2
  %21 = getelementptr inbounds nuw %"class.pxrInternal_v0_24__pxrReserved__::GfRange3f", ptr %12, i32 0, i32 0
  %22 = call noundef nonnull align 4 dereferenceable(4) ptr @_ZNK32pxrInternal_v0_24__pxrReserved__7GfVec3fixEm(ptr noundef nonnull align 4 dereferenceable(12) %21, i64 noundef 0)
  %23 = load float, ptr %22, align 4
  %24 = load ptr, ptr %4, align 8
  %25 = call noundef nonnull align 4 dereferenceable(4) ptr @_ZNK32pxrInternal_v0_24__pxrReserved__7GfVec3fixEm(ptr noundef nonnull align 4 dereferenceable(12) %24, i64 noundef 0)
  %26 = load float, ptr %25, align 4
  %27 = fsub float %23, %26
  store float %27, ptr %6, align 4
  %28 = call noundef double @_ZN32pxrInternal_v0_24__pxrReserved__5GfSqrIfEEdRKT_(ptr noundef nonnull align 4 dereferenceable(4) %6)
  %29 = load double, ptr %5, align 8
  %30 = fadd double %29, %28
  store double %30, ptr %5, align 8
  br label %51

31:                                               ; preds = %2
  %32 = load ptr, ptr %4, align 8
  %33 = call noundef nonnull align 4 dereferenceable(4) ptr @_ZNK32pxrInternal_v0_24__pxrReserved__7GfVec3fixEm(ptr noundef nonnull align 4 dereferenceable(12) %32, i64 noundef 0)
  %34 = load float, ptr %33, align 4
  %35 = getelementptr inbounds nuw %"class.pxrInternal_v0_24__pxrReserved__::GfRange3f", ptr %12, i32 0, i32 1
  %36 = call noundef nonnull align 4 dereferenceable(4) ptr @_ZNK32pxrInternal_v0_24__pxrReserved__7GfVec3fixEm(ptr noundef nonnull align 4 dereferenceable(12) %35, i64 noundef 0)
  %37 = load float, ptr %36, align 4
  %38 = fcmp ogt float %34, %37
  br i1 %38, label %39, label %50

39:                                               ; preds = %31
  %40 = load ptr, ptr %4, align 8
  %41 = call noundef nonnull align 4 dereferenceable(4) ptr @_ZNK32pxrInternal_v0_24__pxrReserved__7GfVec3fixEm(ptr noundef nonnull align 4 dereferenceable(12) %40, i64 noundef 0)
  %42 = load float, ptr %41, align 4
  %43 = getelementptr inbounds nuw %"class.pxrInternal_v0_24__pxrReserved__::GfRange3f", ptr %12, i32 0, i32 1
  %44 = call noundef nonnull align 4 dereferenceable(4) ptr @_ZNK32pxrInternal_v0_24__pxrReserved__7GfVec3fixEm(ptr noundef nonnull align 4 dereferenceable(12) %43, i64 noundef 0)
  %45 = load float, ptr %44, align 4
  %46 = fsub float %42, %45
  store float %46, ptr %7, align 4
  %47 = call noundef double @_ZN32pxrInternal_v0_24__pxrReserved__5GfSqrIfEEdRKT_(ptr noundef nonnull align 4 dereferenceable(4) %7)
  %48 = load double, ptr %5, align 8
  %49 = fadd double %48, %47
  store double %49, ptr %5, align 8
  br label %50

50:                                               ; preds = %39, %31
  br label %51

51:                                               ; preds = %50, %20
  %52 = load ptr, ptr %4, align 8
  %53 = call noundef nonnull align 4 dereferenceable(4) ptr @_ZNK32pxrInternal_v0_24__pxrReserved__7GfVec3fixEm(ptr noundef nonnull align 4 dereferenceable(12) %52, i64 noundef 1)
  %54 = load float, ptr %53, align 4
  %55 = getelementptr inbounds nuw %"class.pxrInternal_v0_24__pxrReserved__::GfRange3f", ptr %12, i32 0, i32 0
  %56 = call noundef nonnull align 4 dereferenceable(4) ptr @_ZNK32pxrInternal_v0_24__pxrReserved__7GfVec3fixEm(ptr noundef nonnull align 4 dereferenceable(12) %55, i64 noundef 1)
  %57 = load float, ptr %56, align 4
  %58 = fcmp olt float %54, %57
  br i1 %58, label %59, label %70

59:                                               ; preds = %51
  %60 = getelementptr inbounds nuw %"class.pxrInternal_v0_24__pxrReserved__::GfRange3f", ptr %12, i32 0, i32 0
  %61 = call noundef nonnull align 4 dereferenceable(4) ptr @_ZNK32pxrInternal_v0_24__pxrReserved__7GfVec3fixEm(ptr noundef nonnull align 4 dereferenceable(12) %60, i64 noundef 1)
  %62 = load float, ptr %61, align 4
  %63 = load ptr, ptr %4, align 8
  %64 = call noundef nonnull align 4 dereferenceable(4) ptr @_ZNK32pxrInternal_v0_24__pxrReserved__7GfVec3fixEm(ptr noundef nonnull align 4 dereferenceable(12) %63, i64 noundef 1)
  %65 = load float, ptr %64, align 4
  %66 = fsub float %62, %65
  store float %66, ptr %8, align 4
  %67 = call noundef double @_ZN32pxrInternal_v0_24__pxrReserved__5GfSqrIfEEdRKT_(ptr noundef nonnull align 4 dereferenceable(4) %8)
  %68 = load double, ptr %5, align 8
  %69 = fadd double %68, %67
  store double %69, ptr %5, align 8
  br label %90

70:                                               ; preds = %51
  %71 = load ptr, ptr %4, align 8
  %72 = call noundef nonnull align 4 dereferenceable(4) ptr @_ZNK32pxrInternal_v0_24__pxrReserved__7GfVec3fixEm(ptr noundef nonnull align 4 dereferenceable(12) %71, i64 noundef 1)
  %73 = load float, ptr %72, align 4
  %74 = getelementptr inbounds nuw %"class.pxrInternal_v0_24__pxrReserved__::GfRange3f", ptr %12, i32 0, i32 1
  %75 = call noundef nonnull align 4 dereferenceable(4) ptr @_ZNK32pxrInternal_v0_24__pxrReserved__7GfVec3fixEm(ptr noundef nonnull align 4 dereferenceable(12) %74, i64 noundef 1)
  %76 = load float, ptr %75, align 4
  %77 = fcmp ogt float %73, %76
  br i1 %77, label %78, label %89

78:                                               ; preds = %70
  %79 = load ptr, ptr %4, align 8
  %80 = call noundef nonnull align 4 dereferenceable(4) ptr @_ZNK32pxrInternal_v0_24__pxrReserved__7GfVec3fixEm(ptr noundef nonnull align 4 dereferenceable(12) %79, i64 noundef 1)
  %81 = load float, ptr %80, align 4
  %82 = getelementptr inbounds nuw %"class.pxrInternal_v0_24__pxrReserved__::GfRange3f", ptr %12, i32 0, i32 1
  %83 = call noundef nonnull align 4 dereferenceable(4) ptr @_ZNK32pxrInternal_v0_24__pxrReserved__7GfVec3fixEm(ptr noundef nonnull align 4 dereferenceable(12) %82, i64 noundef 1)
  %84 = load float, ptr %83, align 4
  %85 = fsub float %81, %84
  store float %85, ptr %9, align 4
  %86 = call noundef double @_ZN32pxrInternal_v0_24__pxrReserved__5GfSqrIfEEdRKT_(ptr noundef nonnull align 4 dereferenceable(4) %9)
  %87 = load double, ptr %5, align 8
  %88 = fadd double %87, %86
  store double %88, ptr %5, align 8
  br label %89

89:                                               ; preds = %78, %70
  br label %90

90:                                               ; preds = %89, %59
  %91 = load ptr, ptr %4, align 8
  %92 = call noundef nonnull align 4 dereferenceable(4) ptr @_ZNK32pxrInternal_v0_24__pxrReserved__7GfVec3fixEm(ptr noundef nonnull align 4 dereferenceable(12) %91, i64 noundef 2)
  %93 = load float, ptr %92, align 4
  %94 = getelementptr inbounds nuw %"class.pxrInternal_v0_24__pxrReserved__::GfRange3f", ptr %12, i32 0, i32 0
  %95 = call noundef nonnull align 4 dereferenceable(4) ptr @_ZNK32pxrInternal_v0_24__pxrReserved__7GfVec3fixEm(ptr noundef nonnull align 4 dereferenceable(12) %94, i64 noundef 2)
  %96 = load float, ptr %95, align 4
  %97 = fcmp olt float %93, %96
  br i1 %97, label %98, label %109

98:                                               ; preds = %90
  %99 = getelementptr inbounds nuw %"class.pxrInternal_v0_24__pxrReserved__::GfRange3f", ptr %12, i32 0, i32 0
  %100 = call noundef nonnull align 4 dereferenceable(4) ptr @_ZNK32pxrInternal_v0_24__pxrReserved__7GfVec3fixEm(ptr noundef nonnull align 4 dereferenceable(12) %99, i64 noundef 2)
  %101 = load float, ptr %100, align 4
  %102 = load ptr, ptr %4, align 8
  %103 = call noundef nonnull align 4 dereferenceable(4) ptr @_ZNK32pxrInternal_v0_24__pxrReserved__7GfVec3fixEm(ptr noundef nonnull align 4 dereferenceable(12) %102, i64 noundef 2)
  %104 = load float, ptr %103, align 4
  %105 = fsub float %101, %104
  store float %105, ptr %10, align 4
  %106 = call noundef double @_ZN32pxrInternal_v0_24__pxrReserved__5GfSqrIfEEdRKT_(ptr noundef nonnull align 4 dereferenceable(4) %10)
  %107 = load double, ptr %5, align 8
  %108 = fadd double %107, %106
  store double %108, ptr %5, align 8
  br label %129

109:                                              ; preds = %90
  %110 = load ptr, ptr %4, align 8
  %111 = call noundef nonnull align 4 dereferenceable(4) ptr @_ZNK32pxrInternal_v0_24__pxrReserved__7GfVec3fixEm(ptr noundef nonnull align 4 dereferenceable(12) %110, i64 noundef 2)
  %112 = load float, ptr %111, align 4
  %113 = getelementptr inbounds nuw %"class.pxrInternal_v0_24__pxrReserved__::GfRange3f", ptr %12, i32 0, i32 1
  %114 = call noundef nonnull align 4 dereferenceable(4) ptr @_ZNK32pxrInternal_v0_24__pxrReserved__7GfVec3fixEm(ptr noundef nonnull align 4 dereferenceable(12) %113, i64 noundef 2)
  %115 = load float, ptr %114, align 4
  %116 = fcmp ogt float %112, %115
  br i1 %116, label %117, label %128

117:                                              ; preds = %109
  %118 = load ptr, ptr %4, align 8
  %119 = call noundef nonnull align 4 dereferenceable(4) ptr @_ZNK32pxrInternal_v0_24__pxrReserved__7GfVec3fixEm(ptr noundef nonnull align 4 dereferenceable(12) %118, i64 noundef 2)
  %120 = load float, ptr %119, align 4
  %121 = getelementptr inbounds nuw %"class.pxrInternal_v0_24__pxrReserved__::GfRange3f", ptr %12, i32 0, i32 1
  %122 = call noundef nonnull align 4 dereferenceable(4) ptr @_ZNK32pxrInternal_v0_24__pxrReserved__7GfVec3fixEm(ptr noundef nonnull align 4 dereferenceable(12) %121, i64 noundef 2)
  %123 = load float, ptr %122, align 4
  %124 = fsub float %120, %123
  store float %124, ptr %11, align 4
  %125 = call noundef double @_ZN32pxrInternal_v0_24__pxrReserved__5GfSqrIfEEdRKT_(ptr noundef nonnull align 4 dereferenceable(4) %11)
  %126 = load double, ptr %5, align 8
  %127 = fadd double %126, %125
  store double %127, ptr %5, align 8
  br label %128

128:                                              ; preds = %117, %109
  br label %129

129:                                              ; preds = %128, %98
  %130 = load double, ptr %5, align 8
  ret double %130
}