; Function Attrs: mustprogress nofree norecurse nosync nounwind willreturn memory(argmem: read) uwtable
define noundef double @_ZNK32pxrInternal_v0_24__pxrReserved__9GfRange3f18GetDistanceSquaredERKNS_7GfVec3fE(ptr noundef nonnull readonly align 4 captures(none) dereferenceable(24) %0, ptr noundef nonnull readonly align 4 captures(none) dereferenceable(12) %1) local_unnamed_addr #4 align 2 {
  %3 = load float, ptr %1, align 4
  %4 = load float, ptr %0, align 4
  %5 = fcmp olt float %3, %4
  br i1 %5, label %6, label %10

6:                                                ; preds = %2
  %7 = fsub float %4, %3
  %8 = fmul float %7, %7
  %9 = fpext float %8 to double
  br label %18

10:                                               ; preds = %2
  %11 = getelementptr inbounds nuw i8, ptr %0, i64 12
  %12 = load float, ptr %11, align 4
  %13 = fcmp ogt float %3, %12
  br i1 %13, label %14, label %18

14:                                               ; preds = %10
  %15 = fsub float %3, %12
  %16 = fmul float %15, %15
  %17 = fpext float %16 to double
  br label %18

18:                                               ; preds = %10, %14, %6
  %.0 = phi double [ %9, %6 ], [ %17, %14 ], [ 0.000000e+00, %10 ]
  %19 = getelementptr inbounds nuw i8, ptr %1, i64 4
  %20 = load float, ptr %19, align 4
  %21 = getelementptr inbounds nuw i8, ptr %0, i64 4
  %22 = load float, ptr %21, align 4
  %23 = fcmp olt float %20, %22
  br i1 %23, label %24, label %29

24:                                               ; preds = %18
  %25 = fsub float %22, %20
  %26 = fmul float %25, %25
  %27 = fpext float %26 to double
  %28 = fadd double %.0, %27
  br label %38

29:                                               ; preds = %18
  %30 = getelementptr inbounds nuw i8, ptr %0, i64 16
  %31 = load float, ptr %30, align 4
  %32 = fcmp ogt float %20, %31
  br i1 %32, label %33, label %38

33:                                               ; preds = %29
  %34 = fsub float %20, %31
  %35 = fmul float %34, %34
  %36 = fpext float %35 to double
  %37 = fadd double %.0, %36
  br label %38

38:                                               ; preds = %29, %33, %24
  %.1 = phi double [ %28, %24 ], [ %37, %33 ], [ %.0, %29 ]
  %39 = getelementptr inbounds nuw i8, ptr %1, i64 8
  %40 = load float, ptr %39, align 4
  %41 = getelementptr inbounds nuw i8, ptr %0, i64 8
  %42 = load float, ptr %41, align 4
  %43 = fcmp olt float %40, %42
  br i1 %43, label %44, label %49

44:                                               ; preds = %38
  %45 = fsub float %42, %40
  %46 = fmul float %45, %45
  %47 = fpext float %46 to double
  %48 = fadd double %.1, %47
  br label %58

49:                                               ; preds = %38
  %50 = getelementptr inbounds nuw i8, ptr %0, i64 20
  %51 = load float, ptr %50, align 4
  %52 = fcmp ogt float %40, %51
  br i1 %52, label %53, label %58

53:                                               ; preds = %49
  %54 = fsub float %40, %51
  %55 = fmul float %54, %54
  %56 = fpext float %55 to double
  %57 = fadd double %.1, %56
  br label %58

58:                                               ; preds = %49, %53, %44
  %.2 = phi double [ %48, %44 ], [ %57, %53 ], [ %.1, %49 ]
  ret double %.2
}